; Function Attrs: mustprogress nofree norecurse nosync nounwind willreturn memory(write, argmem: readwrite, inaccessiblemem: none) uwtable
define dso_local void @_Z14lua_pushnumberP9lua_Stated(ptr noundef captures(none) %0, double noundef %1) local_unnamed_addr #10 {
  %3 = getelementptr inbounds nuw i8, ptr %0, i64 8
  %4 = load ptr, ptr %3, align 8, !tbaa !19
  store double %1, ptr %4, align 8, !tbaa !21
  %5 = getelementptr inbounds nuw i8, ptr %4, i64 12
  store i32 3, ptr %5, align 4, !tbaa !47
  %6 = load ptr, ptr %3, align 8, !tbaa !19
  %7 = getelementptr inbounds nuw i8, ptr %6, i64 16
  store ptr %7, ptr %3, align 8, !tbaa !19
  ret void
}